; Function Attrs: mustprogress nounwind uwtable
define dso_local noundef i32 @_ZN6spdlog5level8from_strERKNSt7__cxx1112basic_stringIcSt11char_traitsIcESaIcEEE(ptr noundef nonnull align 8 dereferenceable(32) %0) local_unnamed_addr #1 personality ptr @__gxx_personality_v0 {
  %2 = invoke noundef ptr @_ZSt9__find_ifIPN3fmt3v1117basic_string_viewIcEEN9__gnu_cxx5__ops16_Iter_equals_valIKNSt7__cxx1112basic_stringIcSt11char_traitsIcESaIcEEEEEET_SG_SG_T0_St26random_access_iterator_tag(ptr noundef nonnull @_ZN6spdlog5levelL18level_string_viewsE, ptr noundef nonnull getelementptr inbounds nuw (i8, ptr @_ZN6spdlog5levelL18level_string_viewsE, i64 112), ptr nonnull align 8 dereferenceable(32) %0)
          to label %_ZSt4findIPN3fmt3v1117basic_string_viewIcEENSt7__cxx1112basic_stringIcSt11char_traitsIcESaIcEEEET_SB_SB_RKT0_.exit unwind label %15

_ZSt4findIPN3fmt3v1117basic_string_viewIcEENSt7__cxx1112basic_stringIcSt11char_traitsIcESaIcEEEET_SB_SB_RKT0_.exit: ; preds = %1
  %.not = icmp eq ptr %2, getelementptr inbounds nuw (i8, ptr @_ZN6spdlog5levelL18level_string_viewsE, i64 112)
  br i1 %.not, label %8, label %3

3:                                                ; preds = %_ZSt4findIPN3fmt3v1117basic_string_viewIcEENSt7__cxx1112basic_stringIcSt11char_traitsIcESaIcEEEET_SB_SB_RKT0_.exit
  %4 = ptrtoint ptr %2 to i64
  %5 = sub i64 %4, ptrtoint (ptr @_ZN6spdlog5levelL18level_string_viewsE to i64)
  %6 = lshr exact i64 %5, 4
  %7 = trunc i64 %6 to i32
  br label %14

8:                                                ; preds = %_ZSt4findIPN3fmt3v1117basic_string_viewIcEENSt7__cxx1112basic_stringIcSt11char_traitsIcESaIcEEEET_SB_SB_RKT0_.exit
  %9 = tail call noundef i32 @_ZNKSt7__cxx1112basic_stringIcSt11char_traitsIcESaIcEE7compareEPKc(ptr noundef nonnull align 8 dereferenceable(32) %0, ptr noundef nonnull @.str) #37
  %10 = icmp eq i32 %9, 0
  br i1 %10, label %14, label %11

11:                                               ; preds = %8
  %12 = tail call noundef i32 @_ZNKSt7__cxx1112basic_stringIcSt11char_traitsIcESaIcEE7compareEPKc(ptr noundef nonnull align 8 dereferenceable(32) %0, ptr noundef nonnull @.str.1) #37
  %13 = icmp eq i32 %12, 0
  %. = select i1 %13, i32 4, i32 6
  br label %14

14:                                               ; preds = %11, %8, %3
  %.0 = phi i32 [ %7, %3 ], [ 3, %8 ], [ %., %11 ]
  ret i32 %.0

15:                                               ; preds = %1
  %16 = landingpad { ptr, i32 }
          catch ptr null
  %17 = extractvalue { ptr, i32 } %16, 0
  tail call void @__clang_call_terminate(ptr %17) #42
  unreachable
}